target datalayout = "e-m:e-p270:32:32-p271:32:32-p272:64:64-i64:64-i128:128-f80:128-n8:16:32:64-S128"
target triple = "x86_64-pc-linux-gnu"

%class.cmLinkLineComputer = type <{ ptr, %class.cmStateDirectory, ptr, i8, i8, i8, i8, [4 x i8] }>
%class.cmStateDirectory = type { %"class.cmLinkedTree<cmStateDetail::BuildsystemDirectoryStateType>::iterator", %class.cmStateSnapshot }
%"class.cmLinkedTree<cmStateDetail::BuildsystemDirectoryStateType>::iterator" = type { ptr, i64 }
%class.cmStateSnapshot = type { ptr, %"class.cmLinkedTree<cmStateDetail::SnapshotDataType>::iterator" }
%"class.cmLinkedTree<cmStateDetail::SnapshotDataType>::iterator" = type { ptr, i64 }

; Function Attrs: mustprogress nounwind uwtable
define dso_local void @_ZN18cmLinkLineComputerC2EP17cmOutputConverterRK16cmStateDirectory(ptr noundef nonnull align 8 dereferenceable(60) %0, ptr noundef %1, ptr noundef nonnull align 8 dereferenceable(40) %2) unnamed_addr #4 align 2 {
  %4 = alloca ptr, align 8
  %5 = alloca ptr, align 8
  %6 = alloca ptr, align 8
  store ptr %0, ptr %4, align 8
  store ptr %1, ptr %5, align 8
  store ptr %2, ptr %6, align 8
  %7 = load ptr, ptr %4, align 8
  store ptr getelementptr inbounds ({ [7 x ptr] }, ptr @_ZTV18cmLinkLineComputer, i32 0, i32 0, i32 2), ptr %7, align 8
  %8 = getelementptr inbounds %class.cmLinkLineComputer, ptr %7, i32 0, i32 1
  %9 = load ptr, ptr %6, align 8
  call void @llvm.memcpy.p0.p0.i64(ptr align 8 %8, ptr align 8 %9, i64 40, i1 false)
  %10 = getelementptr inbounds %class.cmLinkLineComputer, ptr %7, i32 0, i32 2
  %11 = load ptr, ptr %5, align 8
  store ptr %11, ptr %10, align 8
  %12 = getelementptr inbounds %class.cmLinkLineComputer, ptr %7, i32 0, i32 3
  store i8 0, ptr %12, align 8
  %13 = getelementptr inbounds %class.cmLinkLineComputer, ptr %7, i32 0, i32 4
  store i8 0, ptr %13, align 1
  %14 = getelementptr inbounds %class.cmLinkLineComputer, ptr %7, i32 0, i32 5
  store i8 0, ptr %14, align 2
  %15 = getelementptr inbounds %class.cmLinkLineComputer, ptr %7, i32 0, i32 6
  store i8 0, ptr %15, align 1
  ret void
}