; Function Attrs: mustprogress nofree norecurse nosync nounwind willreturn memory(argmem: readwrite) uwtable
define dso_local void @_ZN18cmLinkLineComputerC2EP17cmOutputConverterRK16cmStateDirectory(ptr nocapture noundef nonnull writeonly align 8 dereferenceable(60) %0, ptr noundef %1, ptr nocapture noundef nonnull readonly align 8 dereferenceable(40) %2) unnamed_addr #3 align 2 {
  store ptr getelementptr inbounds ({ [7 x ptr] }, ptr @_ZTV18cmLinkLineComputer, i64 0, i32 0, i64 2), ptr %0, align 8
  %4 = getelementptr inbounds i8, ptr %0, i64 8
  tail call void @llvm.memcpy.p0.p0.i64(ptr noundef nonnull align 8 dereferenceable(40) %4, ptr noundef nonnull align 8 dereferenceable(40) %2, i64 40, i1 false)
  %5 = getelementptr inbounds i8, ptr %0, i64 48
  store ptr %1, ptr %5, align 8
  %6 = getelementptr inbounds i8, ptr %0, i64 56
  store i32 0, ptr %6, align 8
  ret void
}